; Function Attrs: mustprogress nounwind willreturn uwtable
define dso_local void @bitmap_free(ptr noundef %0) local_unnamed_addr #8 {
  %.not = icmp eq ptr %0, null
  br i1 %.not, label %4, label %2

2:                                                ; preds = %1
  %3 = load ptr, ptr %0, align 8, !tbaa !4
  tail call void @free(ptr noundef %3) #13
  tail call void @free(ptr noundef nonnull %0) #13
  br label %4

4:                                                ; preds = %1, %2
  ret void
}